ccollections
defaultdict
p0
(c__builtin__
list
p1
tp2
Rp3
VA
p4
(lp5
VAFRICA
p6
aVASIA
p7
aVAfghanistan
p8
aVAlbania
p9
aVAlgeria
p10
aVAngola
p11
aVArgentina
p12
aVArmenia
p13
aVAruba
p14
aVAustralia
p15
aVAustraliaNew+Zealand
p16
aVAustria
p17
aVAzerbaijan
p18
asVC
p19
(lp20
VCambodia
p21
aVCameroon
p22
aVCanada
p23
aVCape+Verde
p24
aVCaribbean
p25
aVCentral+African+Republic
p26
aVCentral+America
p27
aVCentral+Asia
p28
aVChad
p29
aVChannel+Islands
p30
aVChile
p31
aVChina
p32
aVChina+Hong+Kong+SAR
p33
aVChina+Macao+SAR
p34
aVColombia
p35
aVComoros
p36
aVCongo
p37
aVCosta+Rica
p38
aVCroatia
p39
aVCte+dIvoire
p40
aVCuba
p41
aVCyprus
p42
aVCzech+Republic
p43
asVB
p44
(lp45
VBahamas
p46
aVBahrain
p47
aVBangladesh
p48
aVBarbados
p49
aVBelarus
p50
aVBelgium
p51
aVBelize
p52
aVBenin
p53
aVBhutan
p54
aVBolivia+Plurinational+State+of
p55
aVBosnia+and+Herzegovina
p56
aVBotswana
p57
aVBrazil
p58
aVBrunei+Darussalam
p59
aVBulgaria
p60
aVBurkina+Faso
p61
aVBurundi
p62
asVE
p63
(lp64
VEUROPE
p65
aVEastern+Africa
p66
aVEastern+Asia
p67
aVEastern+Europe
p68
aVEcuador
p69
aVEgypt
p70
aVEl+Salvador
p71
aVEquatorial+Guinea
p72
aVEritrea
p73
aVEstonia
p74
aVEthiopia
p75
asVD
p76
(lp77
VDem+Peoples+Republic+of+Korea
p78
aVDemocratic+Republic+of+the+Congo
p79
aVDenmark
p80
aVDjibouti
p81
aVDominican+Republic
p82
asVG
p83
(lp84
VGabon
p85
aVGambia
p86
aVGeorgia
p87
aVGermany
p88
aVGhana
p89
aVGreece
p90
aVGrenada
p91
aVGuadeloupe
p92
aVGuam
p93
aVGuatemala
p94
aVGuinea
p95
aVGuineaBissau
p96
aVGuyana
p97
asVF
p98
(lp99
VFiji
p100
aVFinland
p101
aVFrance
p102
aVFrench+Guiana
p103
aVFrench+Polynesia
p104
asVI
p105
(lp106
VIceland
p107
aVIndia
p108
aVIndonesia
p109
aVIran+Islamic+Republic+of
p110
aVIraq
p111
aVIreland
p112
aVIsrael
p113
aVItaly
p114
asVH
p115
(lp116
VHaiti
p117
aVHonduras
p118
aVHungary
p119
asVK
p120
(lp121
VKazakhstan
p122
aVKenya
p123
aVKuwait
p124
aVKyrgyzstan
p125
asVJ
p126
(lp127
VJamaica
p128
aVJapan
p129
aVJordan
p130
asVM
p131
(lp132
VMadagascar
p133
aVMalawi
p134
aVMalaysia
p135
aVMaldives
p136
aVMali
p137
aVMalta
p138
aVMartinique
p139
aVMauritania
p140
aVMauritius
p141
aVMayotte
p142
aVMelanesia
p143
aVMexico
p144
aVMicronesia
p145
aVMicronesia+Fed+States+of
p146
aVMiddle+Africa
p147
aVMongolia
p148
aVMontenegro
p149
aVMore+developed+regions
p150
aVMorocco
p151
aVMozambique
p152
aVMyanmar
p153
asVL
p154
(lp155
VLATIN+AMERICA+AND+THE+CARIBBEAN
p156
aVLao+Peoples+Democratic+Republic
p157
aVLatvia
p158
aVLeast+developed+countries
p159
aVLebanon
p160
aVLesotho
p161
aVLess+developed+regions
p162
aVLess+developed+regions+excluding+China
p163
aVLess+developed+regions+excluding+least+developed+countries
p164
aVLiberia
p165
aVLibyan+Arab+Jamahiriya
p166
aVLithuania
p167
aVLuxembourg
p168
asVO
p169
(lp170
VOCEANIA
p171
aVOccupied+Palestinian+Territory
p172
aVOman
p173
aVOther+nonspecified+areas
p174
asVN
p175
(lp176
VNORTHERN+AMERICA
p177
aVNamibia
p178
aVNepal
p179
aVNetherlands
p180
aVNetherlands+Antilles
p181
aVNew+Caledonia
p182
aVNew+Zealand
p183
aVNicaragua
p184
aVNiger
p185
aVNigeria
p186
aVNorthern+Africa
p187
aVNorthern+Europe
p188
aVNorway
p189
asVQ
p190
(lp191
VQatar
p192
asVP
p193
(lp194
VPakistan
p195
aVPanama
p196
aVPapua+New+Guinea
p197
aVParaguay
p198
aVPeru
p199
aVPhilippines
p200
aVPoland
p201
aVPolynesia
p202
aVPortugal
p203
aVPuerto+Rico
p204
asVS
p205
(lp206
VSaint+Lucia
p207
aVSaint+Vincent+and+the+Grenadines
p208
aVSamoa
p209
aVSao+Tome+and+Principe
p210
aVSaudi+Arabia
p211
aVSenegal
p212
aVSerbia
p213
aVSierra+Leone
p214
aVSingapore
p215
aVSlovakia
p216
aVSlovenia
p217
aVSolomon+Islands
p218
aVSomalia
p219
aVSouth+Africa
p220
aVSouth+America
p221
aVSouthCentral+Asia
p222
aVSouthEastern+Asia
p223
aVSouthern+Africa
p224
aVSouthern+Asia
p225
aVSouthern+Europe
p226
aVSpain
p227
aVSri+Lanka
p228
aVSubSaharan+Africa
p229
aVSudan
p230
aVSuriname
p231
aVSwaziland
p232
aVSweden
p233
aVSwitzerland
p234
aVSyrian+Arab+Republic
p235
asVR
p236
(lp237
VRepublic+of+Korea
p238
aVRepublic+of+Moldova
p239
aVRomania
p240
aVRunion
p241
aVRussian+Federation
p242
aVRwanda
p243
asVU
p244
(lp245
VUganda
p246
aVUkraine
p247
aVUnited+Arab+Emirates
p248
aVUnited+Kingdom
p249
aVUnited+Republic+of+Tanzania
p250
aVUnited+States+Virgin+Islands
p251
aVUnited+States+of+America
p252
aVUruguay
p253
aVUzbekistan
p254
asVT
p255
(lp256
VTFYR+Macedonia
p257
aVTajikistan
p258
aVThailand
p259
aVTimorLeste
p260
aVTogo
p261
aVTonga
p262
aVTrinidad+and+Tobago
p263
aVTunisia
p264
aVTurkey
p265
aVTurkmenistan
p266
asVW
p267
(lp268
VWORLD
p269
aVWestern+Africa
p270
aVWestern+Asia
p271
aVWestern+Europe
p272
aVWestern+Sahara
p273
asVV
p274
(lp275
VVanuatu
p276
aVVenezuela+Bolivarian+Republic+of
p277
aVViet+Nam
p278
asVY
p279
(lp280
VYemen
p281
asVZ
p282
(lp283
VZambia
p284
aVZimbabwe
p285
as.