ccollections
defaultdict
p0
(c__builtin__
list
p1
tp2
Rp3
S'A'
p4
(lp5
S'AFRICA'
p6
aS'ASIA'
p7
aS'Afghanistan'
p8
aS'Albania'
p9
aS'Algeria'
p10
aS'Angola'
p11
aS'Argentina'
p12
aS'Armenia'
p13
aS'Aruba'
p14
aS'Australia'
p15
aS'Australia%2FNew+Zealand'
p16
aS'Austria'
p17
aS'Azerbaijan'
p18
asS'C'
p19
(lp20
S'C%C3%B4te+d%27Ivoire'
p21
aS'Cambodia'
p22
aS'Cameroon'
p23
aS'Canada'
p24
aS'Cape+Verde'
p25
aS'Caribbean'
p26
aS'Central+African+Republic'
p27
aS'Central+America'
p28
aS'Central+Asia'
p29
aS'Chad'
p30
aS'Channel+Islands'
p31
aS'Chile'
p32
aS'China'
p33
aS'China%2C+Hong+Kong+SAR'
p34
aS'China%2C+Macao+SAR'
p35
aS'Colombia'
p36
aS'Comoros'
p37
aS'Congo'
p38
aS'Costa+Rica'
p39
aS'Croatia'
p40
aS'Cuba'
p41
aS'Cyprus'
p42
aS'Czech+Republic'
p43
asS'B'
p44
(lp45
S'Bahamas'
p46
aS'Bahrain'
p47
aS'Bangladesh'
p48
aS'Barbados'
p49
aS'Belarus'
p50
aS'Belgium'
p51
aS'Belize'
p52
aS'Benin'
p53
aS'Bhutan'
p54
aS'Bolivia+%28Plurinational+State+of%29'
p55
aS'Bosnia+and+Herzegovina'
p56
aS'Botswana'
p57
aS'Brazil'
p58
aS'Brunei+Darussalam'
p59
aS'Bulgaria'
p60
aS'Burkina+Faso'
p61
aS'Burundi'
p62
asS'E'
p63
(lp64
S'EUROPE'
p65
aS'Eastern+Africa'
p66
aS'Eastern+Asia'
p67
aS'Eastern+Europe'
p68
aS'Ecuador'
p69
aS'Egypt'
p70
aS'El+Salvador'
p71
aS'Equatorial+Guinea'
p72
aS'Eritrea'
p73
aS'Estonia'
p74
aS'Ethiopia'
p75
asS'D'
p76
(lp77
S'Dem.+People%27s+Republic+of+Korea'
p78
aS'Democratic+Republic+of+the+Congo'
p79
aS'Denmark'
p80
aS'Djibouti'
p81
aS'Dominican+Republic'
p82
asS'G'
p83
(lp84
S'Gabon'
p85
aS'Gambia'
p86
aS'Georgia'
p87
aS'Germany'
p88
aS'Ghana'
p89
aS'Greece'
p90
aS'Grenada'
p91
aS'Guadeloupe'
p92
aS'Guam'
p93
aS'Guatemala'
p94
aS'Guinea'
p95
aS'Guinea-Bissau'
p96
aS'Guyana'
p97
asS'F'
p98
(lp99
S'Fiji'
p100
aS'Finland'
p101
aS'France'
p102
aS'French+Guiana'
p103
aS'French+Polynesia'
p104
asS'I'
p105
(lp106
S'Iceland'
p107
aS'India'
p108
aS'Indonesia'
p109
aS'Iran+%28Islamic+Republic+of%29'
p110
aS'Iraq'
p111
aS'Ireland'
p112
aS'Israel'
p113
aS'Italy'
p114
asS'H'
p115
(lp116
S'Haiti'
p117
aS'Honduras'
p118
aS'Hungary'
p119
asS'K'
p120
(lp121
S'Kazakhstan'
p122
aS'Kenya'
p123
aS'Kuwait'
p124
aS'Kyrgyzstan'
p125
asS'J'
p126
(lp127
S'Jamaica'
p128
aS'Japan'
p129
aS'Jordan'
p130
asS'M'
p131
(lp132
S'Madagascar'
p133
aS'Malawi'
p134
aS'Malaysia'
p135
aS'Maldives'
p136
aS'Mali'
p137
aS'Malta'
p138
aS'Martinique'
p139
aS'Mauritania'
p140
aS'Mauritius'
p141
aS'Mayotte'
p142
aS'Melanesia'
p143
aS'Mexico'
p144
aS'Micronesia'
p145
aS'Micronesia+%28Fed.+States+of%29'
p146
aS'Middle+Africa'
p147
aS'Mongolia'
p148
aS'Montenegro'
p149
aS'More+developed+regions'
p150
aS'Morocco'
p151
aS'Mozambique'
p152
aS'Myanmar'
p153
asS'L'
p154
(lp155
S'LATIN+AMERICA+AND+THE+CARIBBEAN'
p156
aS'Lao+People%27s+Democratic+Republic'
p157
aS'Latvia'
p158
aS'Least+developed+countries'
p159
aS'Lebanon'
p160
aS'Lesotho'
p161
aS'Less+developed+regions'
p162
aS'Less+developed+regions%2C+excluding+China'
p163
aS'Less+developed+regions%2C+excluding+least+developed+countries'
p164
aS'Liberia'
p165
aS'Libyan+Arab+Jamahiriya'
p166
aS'Lithuania'
p167
aS'Luxembourg'
p168
asS'O'
p169
(lp170
S'OCEANIA'
p171
aS'Occupied+Palestinian+Territory'
p172
aS'Oman'
p173
aS'Other+non-specified+areas'
p174
asS'N'
p175
(lp176
S'NORTHERN+AMERICA'
p177
aS'Namibia'
p178
aS'Nepal'
p179
aS'Netherlands'
p180
aS'Netherlands+Antilles'
p181
aS'New+Caledonia'
p182
aS'New+Zealand'
p183
aS'Nicaragua'
p184
aS'Niger'
p185
aS'Nigeria'
p186
aS'Northern+Africa'
p187
aS'Northern+Europe'
p188
aS'Norway'
p189
asS'Q'
p190
(lp191
S'Qatar'
p192
asS'P'
p193
(lp194
S'Pakistan'
p195
aS'Panama'
p196
aS'Papua+New+Guinea'
p197
aS'Paraguay'
p198
aS'Peru'
p199
aS'Philippines'
p200
aS'Poland'
p201
aS'Polynesia'
p202
aS'Portugal'
p203
aS'Puerto+Rico'
p204
asS'S'
p205
(lp206
S'Saint+Lucia'
p207
aS'Saint+Vincent+and+the+Grenadines'
p208
aS'Samoa'
p209
aS'Sao+Tome+and+Principe'
p210
aS'Saudi+Arabia'
p211
aS'Senegal'
p212
aS'Serbia'
p213
aS'Sierra+Leone'
p214
aS'Singapore'
p215
aS'Slovakia'
p216
aS'Slovenia'
p217
aS'Solomon+Islands'
p218
aS'Somalia'
p219
aS'South+Africa'
p220
aS'South+America'
p221
aS'South-Central+Asia'
p222
aS'South-Eastern+Asia'
p223
aS'Southern+Africa'
p224
aS'Southern+Asia'
p225
aS'Southern+Europe'
p226
aS'Spain'
p227
aS'Sri+Lanka'
p228
aS'Sub-Saharan+Africa'
p229
aS'Sudan'
p230
aS'Suriname'
p231
aS'Swaziland'
p232
aS'Sweden'
p233
aS'Switzerland'
p234
aS'Syrian+Arab+Republic'
p235
asS'R'
p236
(lp237
S'R%C3%A9union'
p238
aS'Republic+of+Korea'
p239
aS'Republic+of+Moldova'
p240
aS'Romania'
p241
aS'Russian+Federation'
p242
aS'Rwanda'
p243
asS'U'
p244
(lp245
S'Uganda'
p246
aS'Ukraine'
p247
aS'United+Arab+Emirates'
p248
aS'United+Kingdom'
p249
aS'United+Republic+of+Tanzania'
p250
aS'United+States+Virgin+Islands'
p251
aS'United+States+of+America'
p252
aS'Uruguay'
p253
aS'Uzbekistan'
p254
asS'T'
p255
(lp256
S'TFYR+Macedonia'
p257
aS'Tajikistan'
p258
aS'Thailand'
p259
aS'Timor-Leste'
p260
aS'Togo'
p261
aS'Tonga'
p262
aS'Trinidad+and+Tobago'
p263
aS'Tunisia'
p264
aS'Turkey'
p265
aS'Turkmenistan'
p266
asS'W'
p267
(lp268
S'WORLD'
p269
aS'Western+Africa'
p270
aS'Western+Asia'
p271
aS'Western+Europe'
p272
aS'Western+Sahara'
p273
asS'V'
p274
(lp275
S'Vanuatu'
p276
aS'Venezuela+%28Bolivarian+Republic+of%29'
p277
aS'Viet+Nam'
p278
asS'Y'
p279
(lp280
S'Yemen'
p281
asS'Z'
p282
(lp283
S'Zambia'
p284
aS'Zimbabwe'
p285
as.